; ModuleID = '61/1535.c'
source_filename = "61/1535.c"
target datalayout = "e-m:e-p270:32:32-p271:32:32-p272:64:64-i64:64-f80:128-n8:16:32:64-S128"
target triple = "x86_64-pc-linux-gnu"

@.str = private unnamed_addr constant [3 x i8] c"%d\00", align 1
@.str.1 = private unnamed_addr constant [4 x i8] c"%d\0A\00", align 1

; Function Attrs: noinline nounwind uwtable
define dso_local i32 @main() #0 {
  %1 = alloca i32, align 4
  %2 = alloca i32, align 4
  %3 = alloca i32, align 4
  %4 = alloca i32, align 4
  %5 = alloca i32, align 4
  %6 = alloca [100 x i32], align 16
  store i32 0, i32* %1, align 4
  %7 = call i32 (i8*, ...) @__isoc99_scanf(i8* getelementptr inbounds ([3 x i8], [3 x i8]* @.str, i64 0, i64 0), i32* %4)
  store i32 1, i32* %5, align 4
  br label %8

8:                                                ; preds = %18, %0
  %9 = load i32, i32* %5, align 4
  %10 = load i32, i32* %4, align 4
  %11 = icmp sle i32 %9, %10
  br i1 %11, label %12, label %21

12:                                               ; preds = %8
  %13 = call i32 (i8*, ...) @__isoc99_scanf(i8* getelementptr inbounds ([3 x i8], [3 x i8]* @.str, i64 0, i64 0), i32* %3)
  %14 = load i32, i32* %3, align 4
  %15 = call i32 @f(i32 %14)
  store i32 %15, i32* %2, align 4
  %16 = load i32, i32* %2, align 4
  %17 = call i32 (i8*, ...) @printf(i8* getelementptr inbounds ([4 x i8], [4 x i8]* @.str.1, i64 0, i64 0), i32 %16)
  br label %18

18:                                               ; preds = %12
  %19 = load i32, i32* %5, align 4
  %20 = add nsw i32 %19, 1
  store i32 %20, i32* %5, align 4
  br label %8

21:                                               ; preds = %8
  ret i32 0
}

declare dso_local i32 @__isoc99_scanf(i8*, ...) #1

; Function Attrs: noinline nounwind uwtable
define dso_local i32 @f(i32 %0) #0 {
  %2 = alloca i32, align 4
  %3 = alloca i32, align 4
  store i32 %0, i32* %3, align 4
  %4 = load i32, i32* %3, align 4
  %5 = icmp eq i32 %4, 3
  br i1 %5, label %6, label %7

6:                                                ; preds = %1
  store i32 2, i32* %2, align 4
  br label %22

7:                                                ; preds = %1
  %8 = load i32, i32* %3, align 4
  %9 = icmp eq i32 %8, 2
  br i1 %9, label %13, label %10

10:                                               ; preds = %7
  %11 = load i32, i32* %3, align 4
  %12 = icmp eq i32 %11, 1
  br i1 %12, label %13, label %14

13:                                               ; preds = %10, %7
  store i32 1, i32* %2, align 4
  br label %22

14:                                               ; preds = %10
  %15 = load i32, i32* %3, align 4
  %16 = sub nsw i32 %15, 1
  %17 = call i32 @f(i32 %16)
  %18 = load i32, i32* %3, align 4
  %19 = sub nsw i32 %18, 2
  %20 = call i32 @f(i32 %19)
  %21 = add nsw i32 %17, %20
  store i32 %21, i32* %2, align 4
  br label %22

22:                                               ; preds = %14, %13, %6
  %23 = load i32, i32* %2, align 4
  ret i32 %23
}

declare dso_local i32 @printf(i8*, ...) #1


!llvm.module.flags = !{!0}
!llvm.ident = !{!1}

!0 = !{i32 1, !"wchar_size", i32 4}
!1 = !{!"clang version 10.0.0-4ubuntu1 "}
